target datalayout = "e-m:e-p270:32:32-p271:32:32-p272:64:64-i64:64-i128:128-f80:128-n8:16:32:64-S128"
target triple = "x86_64-unknown-linux-gnu"

%class.aiVector3t = type { float, float, float }
%"class.Assimp::StreamReader" = type <{ %"class.std::shared_ptr", ptr, ptr, ptr, ptr, i8, [7 x i8] }>
%"class.std::shared_ptr" = type { %"class.std::__shared_ptr" }
%"class.std::__shared_ptr" = type { ptr, %"class.std::__shared_count" }
%"class.std::__shared_count" = type { ptr }
%"struct.Assimp::Intern::Getter" = type { i8 }
%"struct.Assimp::Intern::ByteSwapper" = type { i8 }

@_ZTI17DeadlyImportError = linkonce_odr constant { ptr, ptr, ptr } { ptr getelementptr inbounds (ptr, ptr @_ZTVN10__cxxabiv120__si_class_type_infoE, i64 2), ptr @_ZTS17DeadlyImportError, ptr @_ZTI15DeadlyErrorBase }, comdat, align 8
@.str.31 = private unnamed_addr constant [40 x i8] c"End of file or stream limit was reached\00", align 1

; Function Attrs: mustprogress nounwind uwtable
define linkonce_odr hidden void @_ZN6Assimp6Intern11ByteSwapperIfLb0EEclEPf(ptr noundef nonnull align 1 dereferenceable(1) %this, ptr noundef %0) #0 comdat align 2 {
entry:
  %this.addr = alloca ptr, align 8
  %.addr = alloca ptr, align 8
  store ptr %this, ptr %this.addr, align 8
  store ptr %0, ptr %.addr, align 8
  ret void
}

; Function Attrs: mustprogress uwtable
define linkonce_odr hidden void @_ZN6Assimp6Intern6GetterILb0EfLb0EEclEPfb(ptr noundef nonnull align 1 dereferenceable(1) %this, ptr noundef %inout, i1 noundef zeroext %0) #3 comdat align 2 {
entry:
  %this.addr = alloca ptr, align 8
  %inout.addr = alloca ptr, align 8
  %.addr = alloca i8, align 1
  %ref.tmp = alloca %"struct.Assimp::Intern::ByteSwapper", align 1
  store ptr %this, ptr %this.addr, align 8
  store ptr %inout, ptr %inout.addr, align 8
  %frombool = zext i1 %0 to i8
  store i8 %frombool, ptr %.addr, align 1
  %1 = load ptr, ptr %inout.addr, align 8
  call void @_ZN6Assimp6Intern11ByteSwapperIfLb0EEclEPf(ptr noundef nonnull align 1 dereferenceable(1) %ref.tmp, ptr noundef %1)
  ret void
}

; Function Attrs: mustprogress uwtable
define linkonce_odr hidden noundef float @_ZN6Assimp12StreamReaderILb0ELb0EE3GetIfEET_v(ptr noundef nonnull align 8 dereferenceable(49) %this) #3 comdat align 2 personality ptr @__gxx_personality_v0 {
entry:
  %this.addr = alloca ptr, align 8
  %exn.slot = alloca ptr, align 8
  %ehselector.slot = alloca i32, align 4
  %f = alloca float, align 4
  %ref.tmp = alloca %"struct.Assimp::Intern::Getter", align 1
  store ptr %this, ptr %this.addr, align 8
  %this1 = load ptr, ptr %this.addr, align 8
  %mCurrent = getelementptr inbounds %"class.Assimp::StreamReader", ptr %this1, i32 0, i32 2
  %0 = load ptr, ptr %mCurrent, align 8
  %add.ptr = getelementptr inbounds i8, ptr %0, i64 4
  %mLimit = getelementptr inbounds %"class.Assimp::StreamReader", ptr %this1, i32 0, i32 4
  %1 = load ptr, ptr %mLimit, align 8
  %cmp = icmp ugt ptr %add.ptr, %1
  br i1 %cmp, label %if.then, label %if.end

if.then:                                          ; preds = %entry
  %exception = call ptr @__cxa_allocate_exception(i64 16) #15
  invoke void @_ZN17DeadlyImportErrorC2EPKc(ptr noundef nonnull align 8 dereferenceable(16) %exception, ptr noundef @.str.31)
          to label %invoke.cont unwind label %lpad

invoke.cont:                                      ; preds = %if.then
  call void @__cxa_throw(ptr %exception, ptr @_ZTI17DeadlyImportError, ptr @_ZN17DeadlyImportErrorD2Ev) #19
  unreachable

lpad:                                             ; preds = %if.then
  %2 = landingpad { ptr, i32 }
          cleanup
  %3 = extractvalue { ptr, i32 } %2, 0
  store ptr %3, ptr %exn.slot, align 8
  %4 = extractvalue { ptr, i32 } %2, 1
  store i32 %4, ptr %ehselector.slot, align 4
  call void @__cxa_free_exception(ptr %exception) #15
  br label %eh.resume

if.end:                                           ; preds = %entry
  %mCurrent2 = getelementptr inbounds %"class.Assimp::StreamReader", ptr %this1, i32 0, i32 2
  %5 = load ptr, ptr %mCurrent2, align 8
  call void @llvm.memcpy.p0.p0.i64(ptr align 4 %f, ptr align 1 %5, i64 4, i1 false)
  %mLe = getelementptr inbounds %"class.Assimp::StreamReader", ptr %this1, i32 0, i32 5
  %6 = load i8, ptr %mLe, align 8
  %tobool = trunc i8 %6 to i1
  call void @_ZN6Assimp6Intern6GetterILb0EfLb0EEclEPfb(ptr noundef nonnull align 1 dereferenceable(1) %ref.tmp, ptr noundef %f, i1 noundef zeroext %tobool)
  %mCurrent3 = getelementptr inbounds %"class.Assimp::StreamReader", ptr %this1, i32 0, i32 2
  %7 = load ptr, ptr %mCurrent3, align 8
  %add.ptr4 = getelementptr inbounds i8, ptr %7, i64 4
  store ptr %add.ptr4, ptr %mCurrent3, align 8
  %8 = load float, ptr %f, align 4
  ret float %8

eh.resume:                                        ; preds = %lpad
  %exn = load ptr, ptr %exn.slot, align 8
  %sel = load i32, ptr %ehselector.slot, align 4
  %lpad.val = insertvalue { ptr, i32 } poison, ptr %exn, 0
  %lpad.val5 = insertvalue { ptr, i32 } %lpad.val, i32 %sel, 1
  resume { ptr, i32 } %lpad.val5
}

; Function Attrs: mustprogress uwtable
define linkonce_odr hidden noundef nonnull align 8 dereferenceable(49) ptr @_ZN6Assimp12StreamReaderILb0ELb0EErsIfEERS1_RT_(ptr noundef nonnull align 8 dereferenceable(49) %this, ptr noundef nonnull align 4 dereferenceable(4) %f) #3 comdat align 2 {
entry:
  %this.addr = alloca ptr, align 8
  %f.addr = alloca ptr, align 8
  store ptr %this, ptr %this.addr, align 8
  store ptr %f, ptr %f.addr, align 8
  %this1 = load ptr, ptr %this.addr, align 8
  %call = call noundef float @_ZN6Assimp12StreamReaderILb0ELb0EE3GetIfEET_v(ptr noundef nonnull align 8 dereferenceable(49) %this1)
  %0 = load ptr, ptr %f.addr, align 8
  store float %call, ptr %0, align 4
  ret ptr %this1
}

; Function Attrs: mustprogress uwtable
define hidden void @_Z10ReadVectorRN6Assimp12StreamReaderILb0ELb0EEER10aiVector3tIfE(ptr noundef nonnull align 8 dereferenceable(49) %stream, ptr noundef nonnull align 4 dereferenceable(12) %pos) #3 {
entry:
  %stream.addr = alloca ptr, align 8
  %pos.addr = alloca ptr, align 8
  store ptr %stream, ptr %stream.addr, align 8
  store ptr %pos, ptr %pos.addr, align 8
  %0 = load ptr, ptr %stream.addr, align 8
  %1 = load ptr, ptr %pos.addr, align 8
  %x = getelementptr inbounds %class.aiVector3t, ptr %1, i32 0, i32 0
  %call = call noundef nonnull align 8 dereferenceable(49) ptr @_ZN6Assimp12StreamReaderILb0ELb0EErsIfEERS1_RT_(ptr noundef nonnull align 8 dereferenceable(49) %0, ptr noundef nonnull align 4 dereferenceable(4) %x)
  %2 = load ptr, ptr %pos.addr, align 8
  %y = getelementptr inbounds %class.aiVector3t, ptr %2, i32 0, i32 1
  %call1 = call noundef nonnull align 8 dereferenceable(49) ptr @_ZN6Assimp12StreamReaderILb0ELb0EErsIfEERS1_RT_(ptr noundef nonnull align 8 dereferenceable(49) %call, ptr noundef nonnull align 4 dereferenceable(4) %y)
  %3 = load ptr, ptr %pos.addr, align 8
  %z = getelementptr inbounds %class.aiVector3t, ptr %3, i32 0, i32 2
  %call2 = call noundef nonnull align 8 dereferenceable(49) ptr @_ZN6Assimp12StreamReaderILb0ELb0EErsIfEERS1_RT_(ptr noundef nonnull align 8 dereferenceable(49) %call1, ptr noundef nonnull align 4 dereferenceable(4) %z)
  ret void
}