; Function Attrs: mustprogress uwtable
define hidden void @_Z10ReadVectorRN6Assimp12StreamReaderILb0ELb0EEER10aiVector3tIfE(ptr nocapture noundef nonnull align 8 dereferenceable(49) %stream, ptr nocapture noundef nonnull writeonly align 4 dereferenceable(12) %pos) local_unnamed_addr #2 personality ptr @__gxx_personality_v0 {
entry:
  %mCurrent.i.i = getelementptr inbounds i8, ptr %stream, i64 24
  %0 = load ptr, ptr %mCurrent.i.i, align 8
  %add.ptr.i.i = getelementptr inbounds i8, ptr %0, i64 4
  %mLimit.i.i = getelementptr inbounds i8, ptr %stream, i64 40
  %1 = load ptr, ptr %mLimit.i.i, align 8
  %cmp.i.i = icmp ugt ptr %add.ptr.i.i, %1
  br i1 %cmp.i.i, label %if.then.i.i, label %_ZN6Assimp12StreamReaderILb0ELb0EErsIfEERS1_RT_.exit

if.then.i.i:                                      ; preds = %entry
  %exception.i.i = tail call ptr @__cxa_allocate_exception(i64 16) #20
  invoke void @_ZN17DeadlyImportErrorC2EPKc(ptr noundef nonnull align 8 dereferenceable(16) %exception.i.i, ptr noundef nonnull @.str.31)
          to label %invoke.cont.i.i unwind label %lpad.i.i

invoke.cont.i.i:                                  ; preds = %if.then.i.i
  tail call void @__cxa_throw(ptr nonnull %exception.i.i, ptr nonnull @_ZTI17DeadlyImportError, ptr nonnull @_ZN17DeadlyImportErrorD2Ev) #21
  unreachable

common.resume:                                    ; preds = %lpad.i.i18, %lpad.i.i9, %lpad.i.i
  %exception.i.i17.sink = phi ptr [ %exception.i.i17, %lpad.i.i18 ], [ %exception.i.i8, %lpad.i.i9 ], [ %exception.i.i, %lpad.i.i ]
  %common.resume.op = phi { ptr, i32 } [ %10, %lpad.i.i18 ], [ %6, %lpad.i.i9 ], [ %2, %lpad.i.i ]
  tail call void @__cxa_free_exception(ptr %exception.i.i17.sink) #20
  resume { ptr, i32 } %common.resume.op

lpad.i.i:                                         ; preds = %if.then.i.i
  %2 = landingpad { ptr, i32 }
          cleanup
  br label %common.resume

_ZN6Assimp12StreamReaderILb0ELb0EErsIfEERS1_RT_.exit: ; preds = %entry
  %3 = load float, ptr %0, align 1
  store ptr %add.ptr.i.i, ptr %mCurrent.i.i, align 8
  store float %3, ptr %pos, align 4
  %4 = load ptr, ptr %mCurrent.i.i, align 8
  %add.ptr.i.i4 = getelementptr inbounds i8, ptr %4, i64 4
  %5 = load ptr, ptr %mLimit.i.i, align 8
  %cmp.i.i6 = icmp ugt ptr %add.ptr.i.i4, %5
  br i1 %cmp.i.i6, label %if.then.i.i7, label %_ZN6Assimp12StreamReaderILb0ELb0EErsIfEERS1_RT_.exit11

if.then.i.i7:                                     ; preds = %_ZN6Assimp12StreamReaderILb0ELb0EErsIfEERS1_RT_.exit
  %exception.i.i8 = tail call ptr @__cxa_allocate_exception(i64 16) #20
  invoke void @_ZN17DeadlyImportErrorC2EPKc(ptr noundef nonnull align 8 dereferenceable(16) %exception.i.i8, ptr noundef nonnull @.str.31)
          to label %invoke.cont.i.i10 unwind label %lpad.i.i9

invoke.cont.i.i10:                                ; preds = %if.then.i.i7
  tail call void @__cxa_throw(ptr nonnull %exception.i.i8, ptr nonnull @_ZTI17DeadlyImportError, ptr nonnull @_ZN17DeadlyImportErrorD2Ev) #21
  unreachable

lpad.i.i9:                                        ; preds = %if.then.i.i7
  %6 = landingpad { ptr, i32 }
          cleanup
  br label %common.resume

_ZN6Assimp12StreamReaderILb0ELb0EErsIfEERS1_RT_.exit11: ; preds = %_ZN6Assimp12StreamReaderILb0ELb0EErsIfEERS1_RT_.exit
  %y = getelementptr inbounds i8, ptr %pos, i64 4
  %7 = load float, ptr %4, align 1
  store ptr %add.ptr.i.i4, ptr %mCurrent.i.i, align 8
  store float %7, ptr %y, align 4
  %8 = load ptr, ptr %mCurrent.i.i, align 8
  %add.ptr.i.i13 = getelementptr inbounds i8, ptr %8, i64 4
  %9 = load ptr, ptr %mLimit.i.i, align 8
  %cmp.i.i15 = icmp ugt ptr %add.ptr.i.i13, %9
  br i1 %cmp.i.i15, label %if.then.i.i16, label %_ZN6Assimp12StreamReaderILb0ELb0EErsIfEERS1_RT_.exit20

if.then.i.i16:                                    ; preds = %_ZN6Assimp12StreamReaderILb0ELb0EErsIfEERS1_RT_.exit11
  %exception.i.i17 = tail call ptr @__cxa_allocate_exception(i64 16) #20
  invoke void @_ZN17DeadlyImportErrorC2EPKc(ptr noundef nonnull align 8 dereferenceable(16) %exception.i.i17, ptr noundef nonnull @.str.31)
          to label %invoke.cont.i.i19 unwind label %lpad.i.i18

invoke.cont.i.i19:                                ; preds = %if.then.i.i16
  tail call void @__cxa_throw(ptr nonnull %exception.i.i17, ptr nonnull @_ZTI17DeadlyImportError, ptr nonnull @_ZN17DeadlyImportErrorD2Ev) #21
  unreachable

lpad.i.i18:                                       ; preds = %if.then.i.i16
  %10 = landingpad { ptr, i32 }
          cleanup
  br label %common.resume

_ZN6Assimp12StreamReaderILb0ELb0EErsIfEERS1_RT_.exit20: ; preds = %_ZN6Assimp12StreamReaderILb0ELb0EErsIfEERS1_RT_.exit11
  %z = getelementptr inbounds i8, ptr %pos, i64 8
  %11 = load float, ptr %8, align 1
  store ptr %add.ptr.i.i13, ptr %mCurrent.i.i, align 8
  store float %11, ptr %z, align 4
  ret void
}